target datalayout = "e-m:e-p270:32:32-p271:32:32-p272:64:64-i64:64-i128:128-f80:128-n8:16:32:64-S128"
target triple = "x86_64-pc-linux-gnu"

%struct.ossl_cmp_msg_st = type { ptr, ptr, ptr, ptr, ptr, ptr }
%struct.ossl_cmp_pkibody_st = type { i32, %union.anon }
%union.anon = type { ptr }
%struct.ossl_cmp_pollrep_st = type { ptr, ptr, ptr }

@.str = private unnamed_addr constant [32 x i8] c"../openssl/crypto/cmp/cmp_msg.c\00", align 1
@__func__.ossl_cmp_pollRep_new = private unnamed_addr constant [21 x i8] c"ossl_cmp_pollRep_new\00", align 1

; Function Attrs: nounwind uwtable
define void @OSSL_CMP_MSG_free(ptr noundef %0) #0 {
  %2 = alloca ptr, align 8
  store ptr %0, ptr %2, align 8, !tbaa !10
  %3 = load ptr, ptr %2, align 8, !tbaa !10
  %4 = call ptr @OSSL_CMP_MSG_it()
  call void @ASN1_item_free(ptr noundef %3, ptr noundef %4)
  ret void
}

; Function Attrs: inlinehint nounwind uwtable
define internal i32 @sk_OSSL_CMP_POLLREP_push(ptr noundef %0, ptr noundef %1) #4 {
  %3 = alloca ptr, align 8
  %4 = alloca ptr, align 8
  store ptr %0, ptr %3, align 8, !tbaa !169
  store ptr %1, ptr %4, align 8, !tbaa !164
  %5 = load ptr, ptr %3, align 8, !tbaa !169
  %6 = load ptr, ptr %4, align 8, !tbaa !164
  %7 = call i32 @OPENSSL_sk_push(ptr noundef %5, ptr noundef %6)
  ret i32 %7
}

; Function Attrs: nounwind uwtable
define ptr @ossl_cmp_pollRep_new(ptr noundef %0, i32 noundef %1, i64 noundef %2) #0 {
  %4 = alloca ptr, align 8
  %5 = alloca ptr, align 8
  %6 = alloca i32, align 4
  %7 = alloca i64, align 8
  %8 = alloca ptr, align 8
  %9 = alloca ptr, align 8
  %10 = alloca i32, align 4
  store ptr %0, ptr %5, align 8, !tbaa !34
  store i32 %1, ptr %6, align 4, !tbaa !20
  store i64 %2, ptr %7, align 8, !tbaa !64
  call void @llvm.lifetime.start.p0(i64 8, ptr %8) #6
  call void @llvm.lifetime.start.p0(i64 8, ptr %9) #6
  %11 = load ptr, ptr %5, align 8, !tbaa !34
  %12 = icmp ne ptr %11, null
  %13 = zext i1 %12 to i32
  %14 = icmp ne i32 %13, 0
  %15 = xor i1 %14, true
  %16 = xor i1 %15, true
  %17 = zext i1 %16 to i32
  %18 = sext i32 %17 to i64
  %19 = call i64 @llvm.expect.i64(i64 %18, i64 1)
  %20 = icmp ne i64 %19, 0
  br i1 %20, label %22, label %21

21:                                               ; preds = %3
  store ptr null, ptr %4, align 8
  store i32 1, ptr %10, align 4
  br label %68

22:                                               ; preds = %3
  %23 = load ptr, ptr %5, align 8, !tbaa !34
  %24 = call ptr @ossl_cmp_msg_create(ptr noundef %23, i32 noundef 26)
  store ptr %24, ptr %8, align 8, !tbaa !10
  %25 = icmp eq ptr %24, null
  br i1 %25, label %26, label %27

26:                                               ; preds = %22
  br label %66

27:                                               ; preds = %22
  %28 = call ptr @OSSL_CMP_POLLREP_new()
  store ptr %28, ptr %9, align 8, !tbaa !164
  %29 = icmp eq ptr %28, null
  br i1 %29, label %30, label %31

30:                                               ; preds = %27
  br label %66

31:                                               ; preds = %27
  %32 = load ptr, ptr %8, align 8, !tbaa !10
  %33 = getelementptr inbounds nuw %struct.ossl_cmp_msg_st, ptr %32, i32 0, i32 1
  %34 = load ptr, ptr %33, align 8, !tbaa !22
  %35 = getelementptr inbounds nuw %struct.ossl_cmp_pkibody_st, ptr %34, i32 0, i32 1
  %36 = load ptr, ptr %35, align 8, !tbaa !25
  %37 = load ptr, ptr %9, align 8, !tbaa !164
  %38 = call i32 @sk_OSSL_CMP_POLLREP_push(ptr noundef %36, ptr noundef %37)
  %39 = icmp ne i32 %38, 0
  br i1 %39, label %41, label %40

40:                                               ; preds = %31
  br label %66

41:                                               ; preds = %31
  %42 = load ptr, ptr %9, align 8, !tbaa !164
  %43 = getelementptr inbounds nuw %struct.ossl_cmp_pollrep_st, ptr %42, i32 0, i32 0
  %44 = load ptr, ptr %43, align 8, !tbaa !166
  %45 = load i32, ptr %6, align 4, !tbaa !20
  %46 = sext i32 %45 to i64
  %47 = call i32 @ASN1_INTEGER_set(ptr noundef %44, i64 noundef %46)
  %48 = icmp ne i32 %47, 0
  br i1 %48, label %50, label %49

49:                                               ; preds = %41
  br label %66

50:                                               ; preds = %41
  %51 = load ptr, ptr %9, align 8, !tbaa !164
  %52 = getelementptr inbounds nuw %struct.ossl_cmp_pollrep_st, ptr %51, i32 0, i32 1
  %53 = load ptr, ptr %52, align 8, !tbaa !168
  %54 = load i64, ptr %7, align 8, !tbaa !64
  %55 = call i32 @ASN1_INTEGER_set_int64(ptr noundef %53, i64 noundef %54)
  %56 = icmp ne i32 %55, 0
  br i1 %56, label %58, label %57

57:                                               ; preds = %50
  br label %66

58:                                               ; preds = %50
  %59 = load ptr, ptr %5, align 8, !tbaa !34
  %60 = load ptr, ptr %8, align 8, !tbaa !10
  %61 = call i32 @ossl_cmp_msg_protect(ptr noundef %59, ptr noundef %60)
  %62 = icmp ne i32 %61, 0
  br i1 %62, label %64, label %63

63:                                               ; preds = %58
  br label %66

64:                                               ; preds = %58
  %65 = load ptr, ptr %8, align 8, !tbaa !10
  store ptr %65, ptr %4, align 8
  store i32 1, ptr %10, align 4
  br label %68

66:                                               ; preds = %63, %57, %49, %40, %30, %26
  call void @ERR_new()
  call void @ERR_set_debug(ptr noundef @.str, i32 noundef 987, ptr noundef @__func__.ossl_cmp_pollRep_new)
  call void (i32, i32, ptr, ...) @ERR_set_error(i32 noundef 58, i32 noundef 123, ptr noundef null)
  %67 = load ptr, ptr %8, align 8, !tbaa !10
  call void @OSSL_CMP_MSG_free(ptr noundef %67)
  store ptr null, ptr %4, align 8
  store i32 1, ptr %10, align 4
  br label %68

68:                                               ; preds = %66, %64, %21
  call void @llvm.lifetime.end.p0(i64 8, ptr %9) #6
  call void @llvm.lifetime.end.p0(i64 8, ptr %8) #6
  %69 = load ptr, ptr %4, align 8
  ret ptr %69
}