; Function Attrs: nounwind uwtable
define ptr @ossl_cmp_pollRep_new(ptr noundef %0, i32 noundef %1, i64 noundef %2) local_unnamed_addr #0 {
  %.not = icmp eq ptr %0, null
  br i1 %.not, label %28, label %4, !prof !18

4:                                                ; preds = %3
  %5 = tail call ptr @ossl_cmp_msg_create(ptr noundef nonnull %0, i32 noundef 26)
  %6 = icmp eq ptr %5, null
  br i1 %6, label %26, label %7

7:                                                ; preds = %4
  %8 = tail call ptr @OSSL_CMP_POLLREP_new() #7
  %9 = icmp eq ptr %8, null
  br i1 %9, label %26, label %10

10:                                               ; preds = %7
  %11 = getelementptr inbounds nuw i8, ptr %5, i64 8
  %12 = load ptr, ptr %11, align 8, !tbaa !17
  %13 = getelementptr inbounds nuw i8, ptr %12, i64 8
  %14 = load ptr, ptr %13, align 8, !tbaa !22
  %15 = tail call i32 @OPENSSL_sk_push(ptr noundef %14, ptr noundef nonnull %8) #7
  %.not15 = icmp eq i32 %15, 0
  br i1 %.not15, label %26, label %16

16:                                               ; preds = %10
  %17 = load ptr, ptr %8, align 8, !tbaa !108
  %18 = sext i32 %1 to i64
  %19 = tail call i32 @ASN1_INTEGER_set(ptr noundef %17, i64 noundef %18) #7
  %.not16 = icmp eq i32 %19, 0
  br i1 %.not16, label %26, label %20

20:                                               ; preds = %16
  %21 = getelementptr inbounds nuw i8, ptr %8, i64 8
  %22 = load ptr, ptr %21, align 8, !tbaa !110
  %23 = tail call i32 @ASN1_INTEGER_set_int64(ptr noundef %22, i64 noundef %2) #7
  %.not17 = icmp eq i32 %23, 0
  br i1 %.not17, label %26, label %24

24:                                               ; preds = %20
  %25 = tail call i32 @ossl_cmp_msg_protect(ptr noundef nonnull %0, ptr noundef nonnull %5) #7
  %.not18 = icmp eq i32 %25, 0
  br i1 %.not18, label %26, label %28

26:                                               ; preds = %24, %20, %16, %10, %7, %4
  tail call void @ERR_new() #7
  tail call void @ERR_set_debug(ptr noundef nonnull @.str, i32 noundef 987, ptr noundef nonnull @__func__.ossl_cmp_pollRep_new) #7
  tail call void (i32, i32, ptr, ...) @ERR_set_error(i32 noundef 58, i32 noundef 123, ptr noundef null) #7
  %27 = tail call ptr @OSSL_CMP_MSG_it() #7
  tail call void @ASN1_item_free(ptr noundef %5, ptr noundef %27) #7
  br label %28

28:                                               ; preds = %24, %3, %26
  %.0 = phi ptr [ null, %26 ], [ null, %3 ], [ %5, %24 ]
  ret ptr %.0
}